target datalayout = "e-m:e-p270:32:32-p271:32:32-p272:64:64-i64:64-i128:128-f80:128-n8:16:32:64-S128"
target triple = "x86_64-pc-linux-gnu"

%union.pthread_mutex_t = type { %struct.__pthread_mutex_s }
%struct.__pthread_mutex_s = type { i32, i32, i32, i32, i32, i16, i16, %struct.__pthread_internal_list }
%struct.__pthread_internal_list = type { ptr, ptr }
%struct.trigger_info_msg = type { i32, ptr }
%struct.trigger_info = type { i16, i32, i16, ptr, i32, i32, i16, i32, ptr }
%struct.trig_mgr_info = type { i32, i16, i32, i16, ptr, ptr, i32, i32, i64, i32, i32, ptr, i8, ptr, ptr, i64 }

@trigger_list = dso_local global ptr null, align 8
@trigger_mutex = internal global %union.pthread_mutex_t zeroinitializer, align 8
@.str.2 = private unnamed_addr constant [29 x i8] c"%s: pthread_mutex_lock(): %m\00", align 1
@__func__.trigger_clear = private unnamed_addr constant [14 x i8] c"trigger_clear\00", align 1
@.str.3 = private unnamed_addr constant [31 x i8] c"%s: pthread_mutex_unlock(): %m\00", align 1

; Function Attrs: inlinehint nounwind willreturn memory(read) uwtable
define available_externally i64 @atol(ptr noundef nonnull %0) #6 {
  %2 = alloca ptr, align 8
  store ptr %0, ptr %2, align 8
  %3 = load ptr, ptr %2, align 8
  %4 = call i64 @strtol(ptr noundef %3, ptr noundef null, i32 noundef 10) #10
  ret i64 %4
}

; Function Attrs: nounwind uwtable
define dso_local i32 @trigger_clear(i32 noundef %0, ptr noundef %1) #0 {
  %3 = alloca i32, align 4
  %4 = alloca ptr, align 8
  %5 = alloca i32, align 4
  %6 = alloca ptr, align 8
  %7 = alloca ptr, align 8
  %8 = alloca ptr, align 8
  %9 = alloca i32, align 4
  %10 = alloca i32, align 4
  %11 = alloca i32, align 4
  store i32 %0, ptr %3, align 4
  store ptr %1, ptr %4, align 8
  call void @llvm.lifetime.start.p0(i64 4, ptr %5) #10
  store i32 3, ptr %5, align 4
  call void @llvm.lifetime.start.p0(i64 8, ptr %6) #10
  call void @llvm.lifetime.start.p0(i64 8, ptr %7) #10
  call void @llvm.lifetime.start.p0(i64 8, ptr %8) #10
  call void @llvm.lifetime.start.p0(i64 4, ptr %9) #10
  store i32 0, ptr %9, align 4
  br label %12

12:                                               ; preds = %2
  call void @llvm.lifetime.start.p0(i64 4, ptr %10) #10
  %13 = call i32 @pthread_mutex_lock(ptr noundef @trigger_mutex) #10
  store i32 %13, ptr %10, align 4
  %14 = load i32, ptr %10, align 4
  %15 = icmp ne i32 %14, 0
  br i1 %15, label %16, label %19

16:                                               ; preds = %12
  %17 = load i32, ptr %10, align 4
  %18 = call ptr @__errno_location() #11
  store i32 %17, ptr %18, align 4
  call void (ptr, ...) @fatal_abort(ptr noundef @.str.2, ptr noundef @__func__.trigger_clear) #12
  unreachable

19:                                               ; preds = %12
  call void @llvm.lifetime.end.p0(i64 4, ptr %10) #10
  br label %20

20:                                               ; preds = %19
  br label %21

21:                                               ; preds = %20
  %22 = load ptr, ptr @trigger_list, align 8
  %23 = icmp eq ptr %22, null
  br i1 %23, label %24, label %26

24:                                               ; preds = %21
  %25 = call ptr @list_create(ptr noundef @_trig_del)
  store ptr %25, ptr @trigger_list, align 8
  br label %26

26:                                               ; preds = %24, %21
  %27 = load ptr, ptr %4, align 8
  call void @_dump_trigger_msg(ptr noundef @__func__.trigger_clear, ptr noundef %27)
  %28 = load ptr, ptr %4, align 8
  %29 = getelementptr inbounds nuw %struct.trigger_info_msg, ptr %28, i32 0, i32 0
  %30 = load i32, ptr %29, align 8
  %31 = icmp ne i32 %30, 1
  br i1 %31, label %32, label %33

32:                                               ; preds = %26
  br label %131

33:                                               ; preds = %26
  %34 = load ptr, ptr %4, align 8
  %35 = getelementptr inbounds nuw %struct.trigger_info_msg, ptr %34, i32 0, i32 1
  %36 = load ptr, ptr %35, align 8
  store ptr %36, ptr %7, align 8
  %37 = load ptr, ptr %7, align 8
  %38 = getelementptr inbounds nuw %struct.trigger_info, ptr %37, i32 0, i32 2
  %39 = load i16, ptr %38, align 8
  %40 = zext i16 %39 to i32
  %41 = icmp eq i32 %40, 1
  br i1 %41, label %42, label %52

42:                                               ; preds = %33
  %43 = load ptr, ptr %7, align 8
  %44 = getelementptr inbounds nuw %struct.trigger_info, ptr %43, i32 0, i32 3
  %45 = load ptr, ptr %44, align 8
  %46 = call i64 @atol(ptr noundef %45) #13
  %47 = trunc i64 %46 to i32
  store i32 %47, ptr %9, align 4
  %48 = load i32, ptr %9, align 4
  %49 = icmp eq i32 %48, 0
  br i1 %49, label %50, label %51

50:                                               ; preds = %42
  store i32 2017, ptr %5, align 4
  br label %131

51:                                               ; preds = %42
  br label %64

52:                                               ; preds = %33
  %53 = load ptr, ptr %7, align 8
  %54 = getelementptr inbounds nuw %struct.trigger_info, ptr %53, i32 0, i32 1
  %55 = load i32, ptr %54, align 4
  %56 = icmp eq i32 %55, 0
  br i1 %56, label %57, label %63

57:                                               ; preds = %52
  %58 = load ptr, ptr %7, align 8
  %59 = getelementptr inbounds nuw %struct.trigger_info, ptr %58, i32 0, i32 7
  %60 = load i32, ptr %59, align 4
  %61 = icmp eq i32 %60, -2
  br i1 %61, label %62, label %63

62:                                               ; preds = %57
  store i32 22, ptr %5, align 4
  br label %131

63:                                               ; preds = %57, %52
  br label %64

64:                                               ; preds = %63, %51
  %65 = load ptr, ptr @trigger_list, align 8
  %66 = call ptr @list_iterator_create(ptr noundef %65)
  store ptr %66, ptr %6, align 8
  br label %67

67:                                               ; preds = %126, %125, %115, %108, %94, %84, %64
  %68 = load ptr, ptr %6, align 8
  %69 = call ptr @list_next(ptr noundef %68)
  store ptr %69, ptr %8, align 8
  %70 = icmp ne ptr %69, null
  br i1 %70, label %71, label %129

71:                                               ; preds = %67
  %72 = load ptr, ptr %7, align 8
  %73 = getelementptr inbounds nuw %struct.trigger_info, ptr %72, i32 0, i32 1
  %74 = load i32, ptr %73, align 4
  %75 = icmp ne i32 %74, 0
  br i1 %75, label %76, label %85

76:                                               ; preds = %71
  %77 = load ptr, ptr %7, align 8
  %78 = getelementptr inbounds nuw %struct.trigger_info, ptr %77, i32 0, i32 1
  %79 = load i32, ptr %78, align 4
  %80 = load ptr, ptr %8, align 8
  %81 = getelementptr inbounds nuw %struct.trig_mgr_info, ptr %80, i32 0, i32 2
  %82 = load i32, ptr %81, align 8
  %83 = icmp ne i32 %79, %82
  br i1 %83, label %84, label %85

84:                                               ; preds = %76
  br label %67, !llvm.loop !12

85:                                               ; preds = %76, %71
  %86 = load i32, ptr %9, align 4
  %87 = icmp ne i32 %86, 0
  br i1 %87, label %88, label %95

88:                                               ; preds = %85
  %89 = load i32, ptr %9, align 4
  %90 = load ptr, ptr %8, align 8
  %91 = getelementptr inbounds nuw %struct.trig_mgr_info, ptr %90, i32 0, i32 6
  %92 = load i32, ptr %91, align 8
  %93 = icmp ne i32 %89, %92
  br i1 %93, label %94, label %95

94:                                               ; preds = %88
  br label %67, !llvm.loop !12

95:                                               ; preds = %88, %85
  %96 = load ptr, ptr %7, align 8
  %97 = getelementptr inbounds nuw %struct.trigger_info, ptr %96, i32 0, i32 7
  %98 = load i32, ptr %97, align 4
  %99 = icmp ne i32 %98, -2
  br i1 %99, label %100, label %109

100:                                              ; preds = %95
  %101 = load ptr, ptr %7, align 8
  %102 = getelementptr inbounds nuw %struct.trigger_info, ptr %101, i32 0, i32 7
  %103 = load i32, ptr %102, align 4
  %104 = load ptr, ptr %8, align 8
  %105 = getelementptr inbounds nuw %struct.trig_mgr_info, ptr %104, i32 0, i32 9
  %106 = load i32, ptr %105, align 8
  %107 = icmp ne i32 %103, %106
  br i1 %107, label %108, label %109

108:                                              ; preds = %100
  br label %67, !llvm.loop !12

109:                                              ; preds = %100, %95
  %110 = load ptr, ptr %8, align 8
  %111 = getelementptr inbounds nuw %struct.trig_mgr_info, ptr %110, i32 0, i32 12
  %112 = load i8, ptr %111, align 8
  %113 = zext i8 %112 to i32
  %114 = icmp eq i32 %113, 2
  br i1 %114, label %115, label %116

115:                                              ; preds = %109
  br label %67, !llvm.loop !12

116:                                              ; preds = %109
  %117 = load ptr, ptr %8, align 8
  %118 = getelementptr inbounds nuw %struct.trig_mgr_info, ptr %117, i32 0, i32 9
  %119 = load i32, ptr %118, align 8
  %120 = load i32, ptr %3, align 4
  %121 = icmp ne i32 %119, %120
  br i1 %121, label %122, label %126

122:                                              ; preds = %116
  %123 = load i32, ptr %3, align 4
  %124 = icmp ne i32 %123, 0
  br i1 %124, label %125, label %126

125:                                              ; preds = %122
  store i32 2002, ptr %5, align 4
  br label %67, !llvm.loop !12

126:                                              ; preds = %122, %116
  %127 = load ptr, ptr %6, align 8
  %128 = call i32 @list_delete_item(ptr noundef %127)
  store i32 0, ptr %5, align 4
  br label %67, !llvm.loop !12

129:                                              ; preds = %67
  %130 = load ptr, ptr %6, align 8
  call void @list_iterator_destroy(ptr noundef %130)
  call void @schedule_trigger_save()
  br label %131

131:                                              ; preds = %129, %62, %50, %32
  br label %132

132:                                              ; preds = %131
  call void @llvm.lifetime.start.p0(i64 4, ptr %11) #10
  %133 = call i32 @pthread_mutex_unlock(ptr noundef @trigger_mutex) #10
  store i32 %133, ptr %11, align 4
  %134 = load i32, ptr %11, align 4
  %135 = icmp ne i32 %134, 0
  br i1 %135, label %136, label %139

136:                                              ; preds = %132
  %137 = load i32, ptr %11, align 4
  %138 = call ptr @__errno_location() #11
  store i32 %137, ptr %138, align 4
  call void (ptr, ...) @fatal_abort(ptr noundef @.str.3, ptr noundef @__func__.trigger_clear) #12
  unreachable

139:                                              ; preds = %132
  call void @llvm.lifetime.end.p0(i64 4, ptr %11) #10
  br label %140

140:                                              ; preds = %139
  br label %141

141:                                              ; preds = %140
  %142 = load i32, ptr %5, align 4
  call void @llvm.lifetime.end.p0(i64 4, ptr %9) #10
  call void @llvm.lifetime.end.p0(i64 8, ptr %8) #10
  call void @llvm.lifetime.end.p0(i64 8, ptr %7) #10
  call void @llvm.lifetime.end.p0(i64 8, ptr %6) #10
  call void @llvm.lifetime.end.p0(i64 4, ptr %5) #10
  ret i32 %142
}