; Function Attrs: nounwind uwtable
define dso_local range(i32 0, 2018) i32 @trigger_clear(i32 noundef %0, ptr noundef captures(address_is_null) %1) local_unnamed_addr #0 {
  %3 = tail call i32 @pthread_mutex_lock(ptr noundef nonnull @trigger_mutex) #12
  %.not = icmp eq i32 %3, 0
  br i1 %.not, label %6, label %4

4:                                                ; preds = %2
  %5 = tail call ptr @__errno_location() #13
  store i32 %3, ptr %5, align 4
  tail call void (ptr, ...) @fatal_abort(ptr noundef nonnull @.str.2, ptr noundef nonnull @__func__.trigger_clear) #14
  unreachable

6:                                                ; preds = %2
  %7 = load ptr, ptr @trigger_list, align 8
  %8 = icmp eq ptr %7, null
  br i1 %8, label %9, label %11

9:                                                ; preds = %6
  %10 = tail call ptr @list_create(ptr noundef nonnull @_trig_del) #12
  store ptr %10, ptr @trigger_list, align 8
  br label %11

11:                                               ; preds = %9, %6
  tail call fastcc void @_dump_trigger_msg(ptr noundef nonnull @__func__.trigger_clear, ptr noundef %1)
  %12 = load i32, ptr %1, align 8
  %.not36 = icmp eq i32 %12, 1
  br i1 %.not36, label %13, label %127

13:                                               ; preds = %11
  %14 = getelementptr inbounds nuw i8, ptr %1, i64 8
  %15 = load ptr, ptr %14, align 8
  %16 = getelementptr inbounds nuw i8, ptr %15, i64 8
  %17 = load i16, ptr %16, align 8
  %18 = icmp eq i16 %17, 1
  br i1 %18, label %19, label %25

19:                                               ; preds = %13
  %20 = getelementptr inbounds nuw i8, ptr %15, i64 16
  %21 = load ptr, ptr %20, align 8
  %22 = tail call i64 @strtol(ptr noundef nonnull captures(none) %21, ptr noundef null, i32 noundef 10) #12
  %23 = trunc i64 %22 to i32
  %24 = icmp eq i32 %23, 0
  br i1 %24, label %127, label %33

25:                                               ; preds = %13
  %26 = getelementptr inbounds nuw i8, ptr %15, i64 4
  %27 = load i32, ptr %26, align 4
  %28 = icmp eq i32 %27, 0
  br i1 %28, label %29, label %33

29:                                               ; preds = %25
  %30 = getelementptr inbounds nuw i8, ptr %15, i64 36
  %31 = load i32, ptr %30, align 4
  %32 = icmp eq i32 %31, -2
  br i1 %32, label %127, label %33

33:                                               ; preds = %25, %29, %19
  %.029 = phi i32 [ %23, %19 ], [ 0, %29 ], [ 0, %25 ]
  %.029.fr = freeze i32 %.029
  %34 = load ptr, ptr @trigger_list, align 8
  %35 = tail call ptr @list_iterator_create(ptr noundef %34) #12
  %36 = tail call ptr @list_next(ptr noundef %35) #12
  %.not374649 = icmp eq ptr %36, null
  br i1 %.not374649, label %.outer._crit_edge, label %.lr.ph.lr.ph

.lr.ph.lr.ph:                                     ; preds = %33
  %37 = getelementptr inbounds nuw i8, ptr %15, i64 4
  %.not40 = icmp eq i32 %.029.fr, 0
  %38 = getelementptr inbounds nuw i8, ptr %15, i64 36
  %.not64 = icmp eq i32 %0, 0
  br i1 %.not40, label %.lr.ph.lr.ph.split.us, label %.lr.ph.lr.ph.split

.lr.ph.lr.ph.split.us:                            ; preds = %.lr.ph.lr.ph
  br i1 %.not64, label %.lr.ph.us.us, label %.lr.ph.us

.lr.ph.us.us:                                     ; preds = %.lr.ph.lr.ph.split.us, %.split.us.us.us
  %39 = phi ptr [ %57, %.split.us.us.us ], [ %36, %.lr.ph.lr.ph.split.us ]
  %.0.ph50.us.us = phi i32 [ 0, %.split.us.us.us ], [ 3, %.lr.ph.lr.ph.split.us ]
  br label %40

40:                                               ; preds = %.backedge.us.us.us, %.lr.ph.us.us
  %41 = phi ptr [ %39, %.lr.ph.us.us ], [ %55, %.backedge.us.us.us ]
  %42 = load i32, ptr %37, align 4
  %.not38.us.us.us = icmp eq i32 %42, 0
  br i1 %.not38.us.us.us, label %46, label %43

43:                                               ; preds = %40
  %44 = getelementptr inbounds nuw i8, ptr %41, i64 8
  %45 = load i32, ptr %44, align 8
  %.not39.us.us.us = icmp eq i32 %42, %45
  br i1 %.not39.us.us.us, label %46, label %.backedge.us.us.us

46:                                               ; preds = %43, %40
  %47 = load i32, ptr %38, align 4
  %.not42.us.us.us = icmp eq i32 %47, -2
  br i1 %.not42.us.us.us, label %51, label %48

48:                                               ; preds = %46
  %49 = getelementptr inbounds nuw i8, ptr %41, i64 48
  %50 = load i32, ptr %49, align 8
  %.not43.us.us.us = icmp eq i32 %47, %50
  br i1 %.not43.us.us.us, label %51, label %.backedge.us.us.us

51:                                               ; preds = %48, %46
  %52 = getelementptr inbounds nuw i8, ptr %41, i64 64
  %53 = load i8, ptr %52, align 8
  %54 = icmp eq i8 %53, 2
  br i1 %54, label %.backedge.us.us.us, label %.split.us.us.us

.backedge.us.us.us:                               ; preds = %51, %48, %43
  %55 = tail call ptr @list_next(ptr noundef %35) #12
  %.not37.us.us.us = icmp eq ptr %55, null
  br i1 %.not37.us.us.us, label %.outer._crit_edge, label %40, !llvm.loop !12

.split.us.us.us:                                  ; preds = %51
  %56 = tail call i32 @list_delete_item(ptr noundef %35) #12
  %57 = tail call ptr @list_next(ptr noundef %35) #12
  %.not3746.us.us = icmp eq ptr %57, null
  br i1 %.not3746.us.us, label %.outer._crit_edge, label %.lr.ph.us.us, !llvm.loop !12

.lr.ph.us:                                        ; preds = %.lr.ph.lr.ph.split.us, %.outer.backedge.us
  %58 = phi ptr [ %61, %.outer.backedge.us ], [ %36, %.lr.ph.lr.ph.split.us ]
  %.0.ph50.us = phi i32 [ %.0.ph.be.us, %.outer.backedge.us ], [ 3, %.lr.ph.lr.ph.split.us ]
  br label %62

59:                                               ; preds = %.split.us.us
  %60 = tail call i32 @list_delete_item(ptr noundef %35) #12
  br label %.outer.backedge.us

.outer.backedge.us:                               ; preds = %.split.us.us, %59
  %.0.ph.be.us = phi i32 [ 2002, %.split.us.us ], [ 0, %59 ]
  %61 = tail call ptr @list_next(ptr noundef %35) #12
  %.not3746.us = icmp eq ptr %61, null
  br i1 %.not3746.us, label %.outer._crit_edge, label %.lr.ph.us, !llvm.loop !12

62:                                               ; preds = %.backedge.us.us, %.lr.ph.us
  %63 = phi ptr [ %58, %.lr.ph.us ], [ %77, %.backedge.us.us ]
  %64 = load i32, ptr %37, align 4
  %.not38.us.us = icmp eq i32 %64, 0
  br i1 %.not38.us.us, label %68, label %65

65:                                               ; preds = %62
  %66 = getelementptr inbounds nuw i8, ptr %63, i64 8
  %67 = load i32, ptr %66, align 8
  %.not39.us.us = icmp eq i32 %64, %67
  br i1 %.not39.us.us, label %68, label %.backedge.us.us

68:                                               ; preds = %65, %62
  %69 = load i32, ptr %38, align 4
  %.not42.us.us = icmp eq i32 %69, -2
  br i1 %.not42.us.us, label %73, label %70

70:                                               ; preds = %68
  %71 = getelementptr inbounds nuw i8, ptr %63, i64 48
  %72 = load i32, ptr %71, align 8
  %.not43.us.us = icmp eq i32 %69, %72
  br i1 %.not43.us.us, label %73, label %.backedge.us.us

73:                                               ; preds = %70, %68
  %74 = getelementptr inbounds nuw i8, ptr %63, i64 64
  %75 = load i8, ptr %74, align 8
  %76 = icmp eq i8 %75, 2
  br i1 %76, label %.backedge.us.us, label %.split.us.us

.backedge.us.us:                                  ; preds = %73, %70, %65
  %77 = tail call ptr @list_next(ptr noundef %35) #12
  %.not37.us.us = icmp eq ptr %77, null
  br i1 %.not37.us.us, label %.outer._crit_edge, label %62, !llvm.loop !12

.split.us.us:                                     ; preds = %73
  %78 = getelementptr inbounds nuw i8, ptr %63, i64 48
  %79 = load i32, ptr %78, align 8
  %.not66 = icmp eq i32 %79, %0
  br i1 %.not66, label %59, label %.outer.backedge.us

.lr.ph.lr.ph.split:                               ; preds = %.lr.ph.lr.ph
  br i1 %.not64, label %.lr.ph.us54, label %.lr.ph

.lr.ph.us54:                                      ; preds = %.lr.ph.lr.ph.split, %.split.us
  %80 = phi ptr [ %100, %.split.us ], [ %36, %.lr.ph.lr.ph.split ]
  %.0.ph50.us55 = phi i32 [ 0, %.split.us ], [ 3, %.lr.ph.lr.ph.split ]
  br label %81

81:                                               ; preds = %.backedge.us, %.lr.ph.us54
  %82 = phi ptr [ %80, %.lr.ph.us54 ], [ %101, %.backedge.us ]
  %83 = load i32, ptr %37, align 4
  %.not38.us = icmp eq i32 %83, 0
  br i1 %.not38.us, label %87, label %84

84:                                               ; preds = %81
  %85 = getelementptr inbounds nuw i8, ptr %82, i64 8
  %86 = load i32, ptr %85, align 8
  %.not39.us = icmp eq i32 %83, %86
  br i1 %.not39.us, label %87, label %.backedge.us

87:                                               ; preds = %84, %81
  %88 = getelementptr inbounds nuw i8, ptr %82, i64 32
  %89 = load i32, ptr %88, align 8
  %.not41.us = icmp eq i32 %.029.fr, %89
  br i1 %.not41.us, label %90, label %.backedge.us

90:                                               ; preds = %87
  %91 = load i32, ptr %38, align 4
  %.not42.us = icmp eq i32 %91, -2
  br i1 %.not42.us, label %95, label %92

92:                                               ; preds = %90
  %93 = getelementptr inbounds nuw i8, ptr %82, i64 48
  %94 = load i32, ptr %93, align 8
  %.not43.us = icmp eq i32 %91, %94
  br i1 %.not43.us, label %95, label %.backedge.us

95:                                               ; preds = %92, %90
  %96 = getelementptr inbounds nuw i8, ptr %82, i64 64
  %97 = load i8, ptr %96, align 8
  %98 = icmp eq i8 %97, 2
  br i1 %98, label %.backedge.us, label %.split.us

.split.us:                                        ; preds = %95
  %99 = tail call i32 @list_delete_item(ptr noundef %35) #12
  %100 = tail call ptr @list_next(ptr noundef %35) #12
  %.not3746.us59 = icmp eq ptr %100, null
  br i1 %.not3746.us59, label %.outer._crit_edge, label %.lr.ph.us54, !llvm.loop !12

.backedge.us:                                     ; preds = %95, %92, %87, %84
  %101 = tail call ptr @list_next(ptr noundef %35) #12
  %.not37.us = icmp eq ptr %101, null
  br i1 %.not37.us, label %.outer._crit_edge, label %81, !llvm.loop !12

.lr.ph:                                           ; preds = %.lr.ph.lr.ph.split, %.outer.backedge
  %102 = phi ptr [ %126, %.outer.backedge ], [ %36, %.lr.ph.lr.ph.split ]
  %.0.ph50 = phi i32 [ %.0.ph.be, %.outer.backedge ], [ 3, %.lr.ph.lr.ph.split ]
  br label %103

103:                                              ; preds = %.lr.ph, %.backedge
  %104 = phi ptr [ %102, %.lr.ph ], [ %109, %.backedge ]
  %105 = load i32, ptr %37, align 4
  %.not38 = icmp eq i32 %105, 0
  br i1 %.not38, label %110, label %106

106:                                              ; preds = %103
  %107 = getelementptr inbounds nuw i8, ptr %104, i64 8
  %108 = load i32, ptr %107, align 8
  %.not39 = icmp eq i32 %105, %108
  br i1 %.not39, label %110, label %.backedge

.backedge:                                        ; preds = %106, %110, %115, %118
  %109 = tail call ptr @list_next(ptr noundef %35) #12
  %.not37 = icmp eq ptr %109, null
  br i1 %.not37, label %.outer._crit_edge, label %103, !llvm.loop !12

110:                                              ; preds = %106, %103
  %111 = getelementptr inbounds nuw i8, ptr %104, i64 32
  %112 = load i32, ptr %111, align 8
  %.not41 = icmp eq i32 %.029.fr, %112
  br i1 %.not41, label %113, label %.backedge

113:                                              ; preds = %110
  %114 = load i32, ptr %38, align 4
  %.not42 = icmp eq i32 %114, -2
  br i1 %.not42, label %118, label %115

115:                                              ; preds = %113
  %116 = getelementptr inbounds nuw i8, ptr %104, i64 48
  %117 = load i32, ptr %116, align 8
  %.not43 = icmp eq i32 %114, %117
  br i1 %.not43, label %118, label %.backedge

118:                                              ; preds = %115, %113
  %119 = getelementptr inbounds nuw i8, ptr %104, i64 64
  %120 = load i8, ptr %119, align 8
  %121 = icmp eq i8 %120, 2
  br i1 %121, label %.backedge, label %.split

.split:                                           ; preds = %118
  %122 = getelementptr inbounds nuw i8, ptr %104, i64 48
  %123 = load i32, ptr %122, align 8
  %.not65 = icmp eq i32 %123, %0
  br i1 %.not65, label %124, label %.outer.backedge

124:                                              ; preds = %.split
  %125 = tail call i32 @list_delete_item(ptr noundef %35) #12
  br label %.outer.backedge

.outer.backedge:                                  ; preds = %124, %.split
  %.0.ph.be = phi i32 [ 2002, %.split ], [ 0, %124 ]
  %126 = tail call ptr @list_next(ptr noundef %35) #12
  %.not3746 = icmp eq ptr %126, null
  br i1 %.not3746, label %.outer._crit_edge, label %.lr.ph, !llvm.loop !12

.outer._crit_edge:                                ; preds = %.outer.backedge, %.backedge, %.split.us, %.backedge.us, %.outer.backedge.us, %.backedge.us.us, %.split.us.us.us, %.backedge.us.us.us, %33
  %.0.ph.lcssa = phi i32 [ 3, %33 ], [ %.0.ph50.us.us, %.backedge.us.us.us ], [ 0, %.split.us.us.us ], [ %.0.ph50.us, %.backedge.us.us ], [ %.0.ph.be.us, %.outer.backedge.us ], [ %.0.ph50.us55, %.backedge.us ], [ 0, %.split.us ], [ %.0.ph50, %.backedge ], [ %.0.ph.be, %.outer.backedge ]
  tail call void @list_iterator_destroy(ptr noundef %35) #12
  tail call void @schedule_trigger_save() #12
  br label %127

127:                                              ; preds = %29, %19, %.outer._crit_edge, %11
  %.1 = phi i32 [ 3, %11 ], [ %.0.ph.lcssa, %.outer._crit_edge ], [ 2017, %19 ], [ 22, %29 ]
  %128 = tail call i32 @pthread_mutex_unlock(ptr noundef nonnull @trigger_mutex) #12
  %.not44 = icmp eq i32 %128, 0
  br i1 %.not44, label %131, label %129

129:                                              ; preds = %127
  %130 = tail call ptr @__errno_location() #13
  store i32 %128, ptr %130, align 4
  tail call void (ptr, ...) @fatal_abort(ptr noundef nonnull @.str.3, ptr noundef nonnull @__func__.trigger_clear) #14
  unreachable

131:                                              ; preds = %127
  ret i32 %.1
}